target datalayout = "e-m:e-p270:32:32-p271:32:32-p272:64:64-i64:64-i128:128-f80:128-n8:16:32:64-S128"
target triple = "x86_64-pc-linux-gnu"

; Function Attrs: nounwind uwtable
define internal i32 @base64_encode(ptr noundef %0, ptr noundef %1, i64 noundef %2, ptr noundef %3, ptr noundef %4) #0 {
  %6 = alloca i32, align 4
  %7 = alloca ptr, align 8
  %8 = alloca ptr, align 8
  %9 = alloca i64, align 8
  %10 = alloca ptr, align 8
  %11 = alloca ptr, align 8
  %12 = alloca ptr, align 8
  %13 = alloca ptr, align 8
  %14 = alloca ptr, align 8
  %15 = alloca ptr, align 8
  %16 = alloca i32, align 4
  store ptr %0, ptr %7, align 8, !tbaa !4
  store ptr %1, ptr %8, align 8, !tbaa !4
  store i64 %2, ptr %9, align 8, !tbaa !13
  store ptr %3, ptr %10, align 8, !tbaa !9
  store ptr %4, ptr %11, align 8, !tbaa !11
  call void @llvm.lifetime.start.p0(i64 8, ptr %12) #7
  call void @llvm.lifetime.start.p0(i64 8, ptr %13) #7
  call void @llvm.lifetime.start.p0(i64 8, ptr %14) #7
  %17 = load ptr, ptr %8, align 8, !tbaa !4
  store ptr %17, ptr %14, align 8, !tbaa !4
  call void @llvm.lifetime.start.p0(i64 8, ptr %15) #7
  %18 = load ptr, ptr %7, align 8, !tbaa !4
  %19 = getelementptr inbounds i8, ptr %18, i64 64
  store ptr %19, ptr %15, align 8, !tbaa !4
  %20 = load ptr, ptr %10, align 8, !tbaa !9
  store ptr null, ptr %20, align 8, !tbaa !4
  %21 = load ptr, ptr %11, align 8, !tbaa !11
  store i64 0, ptr %21, align 8, !tbaa !13
  %22 = load i64, ptr %9, align 8, !tbaa !13
  %23 = icmp ne i64 %22, 0
  br i1 %23, label %27, label %24

24:                                               ; preds = %5
  %25 = load ptr, ptr %8, align 8, !tbaa !4
  %26 = call i64 @strlen(ptr noundef %25) #8
  store i64 %26, ptr %9, align 8, !tbaa !13
  br label %27

27:                                               ; preds = %24, %5
  %28 = load i64, ptr %9, align 8, !tbaa !13
  %29 = add i64 %28, 2
  %30 = udiv i64 %29, 3
  %31 = mul i64 %30, 4
  %32 = add i64 %31, 1
  %33 = call noalias ptr @malloc(i64 noundef %32) #9
  store ptr %33, ptr %12, align 8, !tbaa !4
  store ptr %33, ptr %13, align 8, !tbaa !4
  %34 = load ptr, ptr %12, align 8, !tbaa !4
  %35 = icmp ne ptr %34, null
  br i1 %35, label %37, label %36

36:                                               ; preds = %27
  store i32 27, ptr %6, align 4
  store i32 1, ptr %16, align 4
  br label %200

37:                                               ; preds = %27
  br label %38

38:                                               ; preds = %41, %37
  %39 = load i64, ptr %9, align 8, !tbaa !13
  %40 = icmp uge i64 %39, 3
  br i1 %40, label %41, label %105

41:                                               ; preds = %38
  %42 = load ptr, ptr %7, align 8, !tbaa !4
  %43 = load ptr, ptr %14, align 8, !tbaa !4
  %44 = getelementptr inbounds i8, ptr %43, i64 0
  %45 = load i8, ptr %44, align 1, !tbaa !15
  %46 = zext i8 %45 to i32
  %47 = ashr i32 %46, 2
  %48 = sext i32 %47 to i64
  %49 = getelementptr inbounds i8, ptr %42, i64 %48
  %50 = load i8, ptr %49, align 1, !tbaa !15
  %51 = load ptr, ptr %12, align 8, !tbaa !4
  %52 = getelementptr inbounds nuw i8, ptr %51, i32 1
  store ptr %52, ptr %12, align 8, !tbaa !4
  store i8 %50, ptr %51, align 1, !tbaa !15
  %53 = load ptr, ptr %7, align 8, !tbaa !4
  %54 = load ptr, ptr %14, align 8, !tbaa !4
  %55 = getelementptr inbounds i8, ptr %54, i64 0
  %56 = load i8, ptr %55, align 1, !tbaa !15
  %57 = zext i8 %56 to i32
  %58 = and i32 %57, 3
  %59 = shl i32 %58, 4
  %60 = load ptr, ptr %14, align 8, !tbaa !4
  %61 = getelementptr inbounds i8, ptr %60, i64 1
  %62 = load i8, ptr %61, align 1, !tbaa !15
  %63 = zext i8 %62 to i32
  %64 = ashr i32 %63, 4
  %65 = or i32 %59, %64
  %66 = sext i32 %65 to i64
  %67 = getelementptr inbounds i8, ptr %53, i64 %66
  %68 = load i8, ptr %67, align 1, !tbaa !15
  %69 = load ptr, ptr %12, align 8, !tbaa !4
  %70 = getelementptr inbounds nuw i8, ptr %69, i32 1
  store ptr %70, ptr %12, align 8, !tbaa !4
  store i8 %68, ptr %69, align 1, !tbaa !15
  %71 = load ptr, ptr %7, align 8, !tbaa !4
  %72 = load ptr, ptr %14, align 8, !tbaa !4
  %73 = getelementptr inbounds i8, ptr %72, i64 1
  %74 = load i8, ptr %73, align 1, !tbaa !15
  %75 = zext i8 %74 to i32
  %76 = and i32 %75, 15
  %77 = shl i32 %76, 2
  %78 = load ptr, ptr %14, align 8, !tbaa !4
  %79 = getelementptr inbounds i8, ptr %78, i64 2
  %80 = load i8, ptr %79, align 1, !tbaa !15
  %81 = zext i8 %80 to i32
  %82 = and i32 %81, 192
  %83 = ashr i32 %82, 6
  %84 = or i32 %77, %83
  %85 = sext i32 %84 to i64
  %86 = getelementptr inbounds i8, ptr %71, i64 %85
  %87 = load i8, ptr %86, align 1, !tbaa !15
  %88 = load ptr, ptr %12, align 8, !tbaa !4
  %89 = getelementptr inbounds nuw i8, ptr %88, i32 1
  store ptr %89, ptr %12, align 8, !tbaa !4
  store i8 %87, ptr %88, align 1, !tbaa !15
  %90 = load ptr, ptr %7, align 8, !tbaa !4
  %91 = load ptr, ptr %14, align 8, !tbaa !4
  %92 = getelementptr inbounds i8, ptr %91, i64 2
  %93 = load i8, ptr %92, align 1, !tbaa !15
  %94 = zext i8 %93 to i32
  %95 = and i32 %94, 63
  %96 = sext i32 %95 to i64
  %97 = getelementptr inbounds i8, ptr %90, i64 %96
  %98 = load i8, ptr %97, align 1, !tbaa !15
  %99 = load ptr, ptr %12, align 8, !tbaa !4
  %100 = getelementptr inbounds nuw i8, ptr %99, i32 1
  store ptr %100, ptr %12, align 8, !tbaa !4
  store i8 %98, ptr %99, align 1, !tbaa !15
  %101 = load i64, ptr %9, align 8, !tbaa !13
  %102 = sub i64 %101, 3
  store i64 %102, ptr %9, align 8, !tbaa !13
  %103 = load ptr, ptr %14, align 8, !tbaa !4
  %104 = getelementptr inbounds i8, ptr %103, i64 3
  store ptr %104, ptr %14, align 8, !tbaa !4
  br label %38, !llvm.loop !23

105:                                              ; preds = %38
  %106 = load i64, ptr %9, align 8, !tbaa !13
  %107 = icmp ne i64 %106, 0
  br i1 %107, label %108, label %190

108:                                              ; preds = %105
  %109 = load ptr, ptr %7, align 8, !tbaa !4
  %110 = load ptr, ptr %14, align 8, !tbaa !4
  %111 = getelementptr inbounds i8, ptr %110, i64 0
  %112 = load i8, ptr %111, align 1, !tbaa !15
  %113 = zext i8 %112 to i32
  %114 = ashr i32 %113, 2
  %115 = sext i32 %114 to i64
  %116 = getelementptr inbounds i8, ptr %109, i64 %115
  %117 = load i8, ptr %116, align 1, !tbaa !15
  %118 = load ptr, ptr %12, align 8, !tbaa !4
  %119 = getelementptr inbounds nuw i8, ptr %118, i32 1
  store ptr %119, ptr %12, align 8, !tbaa !4
  store i8 %117, ptr %118, align 1, !tbaa !15
  %120 = load i64, ptr %9, align 8, !tbaa !13
  %121 = icmp eq i64 %120, 1
  br i1 %121, label %122, label %148

122:                                              ; preds = %108
  %123 = load ptr, ptr %7, align 8, !tbaa !4
  %124 = load ptr, ptr %14, align 8, !tbaa !4
  %125 = getelementptr inbounds i8, ptr %124, i64 0
  %126 = load i8, ptr %125, align 1, !tbaa !15
  %127 = zext i8 %126 to i32
  %128 = and i32 %127, 3
  %129 = shl i32 %128, 4
  %130 = sext i32 %129 to i64
  %131 = getelementptr inbounds i8, ptr %123, i64 %130
  %132 = load i8, ptr %131, align 1, !tbaa !15
  %133 = load ptr, ptr %12, align 8, !tbaa !4
  %134 = getelementptr inbounds nuw i8, ptr %133, i32 1
  store ptr %134, ptr %12, align 8, !tbaa !4
  store i8 %132, ptr %133, align 1, !tbaa !15
  %135 = load ptr, ptr %15, align 8, !tbaa !4
  %136 = load i8, ptr %135, align 1, !tbaa !15
  %137 = icmp ne i8 %136, 0
  br i1 %137, label %138, label %147

138:                                              ; preds = %122
  %139 = load ptr, ptr %15, align 8, !tbaa !4
  %140 = load i8, ptr %139, align 1, !tbaa !15
  %141 = load ptr, ptr %12, align 8, !tbaa !4
  %142 = getelementptr inbounds nuw i8, ptr %141, i32 1
  store ptr %142, ptr %12, align 8, !tbaa !4
  store i8 %140, ptr %141, align 1, !tbaa !15
  %143 = load ptr, ptr %15, align 8, !tbaa !4
  %144 = load i8, ptr %143, align 1, !tbaa !15
  %145 = load ptr, ptr %12, align 8, !tbaa !4
  %146 = getelementptr inbounds nuw i8, ptr %145, i32 1
  store ptr %146, ptr %12, align 8, !tbaa !4
  store i8 %144, ptr %145, align 1, !tbaa !15
  br label %147

147:                                              ; preds = %138, %122
  br label %189

148:                                              ; preds = %108
  %149 = load ptr, ptr %7, align 8, !tbaa !4
  %150 = load ptr, ptr %14, align 8, !tbaa !4
  %151 = getelementptr inbounds i8, ptr %150, i64 0
  %152 = load i8, ptr %151, align 1, !tbaa !15
  %153 = zext i8 %152 to i32
  %154 = and i32 %153, 3
  %155 = shl i32 %154, 4
  %156 = load ptr, ptr %14, align 8, !tbaa !4
  %157 = getelementptr inbounds i8, ptr %156, i64 1
  %158 = load i8, ptr %157, align 1, !tbaa !15
  %159 = zext i8 %158 to i32
  %160 = and i32 %159, 240
  %161 = ashr i32 %160, 4
  %162 = or i32 %155, %161
  %163 = sext i32 %162 to i64
  %164 = getelementptr inbounds i8, ptr %149, i64 %163
  %165 = load i8, ptr %164, align 1, !tbaa !15
  %166 = load ptr, ptr %12, align 8, !tbaa !4
  %167 = getelementptr inbounds nuw i8, ptr %166, i32 1
  store ptr %167, ptr %12, align 8, !tbaa !4
  store i8 %165, ptr %166, align 1, !tbaa !15
  %168 = load ptr, ptr %7, align 8, !tbaa !4
  %169 = load ptr, ptr %14, align 8, !tbaa !4
  %170 = getelementptr inbounds i8, ptr %169, i64 1
  %171 = load i8, ptr %170, align 1, !tbaa !15
  %172 = zext i8 %171 to i32
  %173 = and i32 %172, 15
  %174 = shl i32 %173, 2
  %175 = sext i32 %174 to i64
  %176 = getelementptr inbounds i8, ptr %168, i64 %175
  %177 = load i8, ptr %176, align 1, !tbaa !15
  %178 = load ptr, ptr %12, align 8, !tbaa !4
  %179 = getelementptr inbounds nuw i8, ptr %178, i32 1
  store ptr %179, ptr %12, align 8, !tbaa !4
  store i8 %177, ptr %178, align 1, !tbaa !15
  %180 = load ptr, ptr %15, align 8, !tbaa !4
  %181 = load i8, ptr %180, align 1, !tbaa !15
  %182 = icmp ne i8 %181, 0
  br i1 %182, label %183, label %188

183:                                              ; preds = %148
  %184 = load ptr, ptr %15, align 8, !tbaa !4
  %185 = load i8, ptr %184, align 1, !tbaa !15
  %186 = load ptr, ptr %12, align 8, !tbaa !4
  %187 = getelementptr inbounds nuw i8, ptr %186, i32 1
  store ptr %187, ptr %12, align 8, !tbaa !4
  store i8 %185, ptr %186, align 1, !tbaa !15
  br label %188

188:                                              ; preds = %183, %148
  br label %189

189:                                              ; preds = %188, %147
  br label %190

190:                                              ; preds = %189, %105
  %191 = load ptr, ptr %12, align 8, !tbaa !4
  store i8 0, ptr %191, align 1, !tbaa !15
  %192 = load ptr, ptr %13, align 8, !tbaa !4
  %193 = load ptr, ptr %10, align 8, !tbaa !9
  store ptr %192, ptr %193, align 8, !tbaa !4
  %194 = load ptr, ptr %12, align 8, !tbaa !4
  %195 = load ptr, ptr %13, align 8, !tbaa !4
  %196 = ptrtoint ptr %194 to i64
  %197 = ptrtoint ptr %195 to i64
  %198 = sub i64 %196, %197
  %199 = load ptr, ptr %11, align 8, !tbaa !11
  store i64 %198, ptr %199, align 8, !tbaa !13
  store i32 0, ptr %6, align 4
  store i32 1, ptr %16, align 4
  br label %200

200:                                              ; preds = %190, %36
  call void @llvm.lifetime.end.p0(i64 8, ptr %15) #7
  call void @llvm.lifetime.end.p0(i64 8, ptr %14) #7
  call void @llvm.lifetime.end.p0(i64 8, ptr %13) #7
  call void @llvm.lifetime.end.p0(i64 8, ptr %12) #7
  %201 = load i32, ptr %6, align 4
  ret i32 %201
}