; Function Attrs: nofree nounwind memory(write, argmem: readwrite, inaccessiblemem: readwrite) uwtable
define internal fastcc range(i32 0, 28) i32 @base64_encode(ptr noundef readonly captures(none) %0, ptr noundef readonly captures(none) %1, i64 noundef %2, ptr noundef writeonly captures(none) initializes((0, 8)) %3, ptr noundef writeonly captures(none) initializes((0, 8)) %4) unnamed_addr #7 {
  %6 = getelementptr inbounds nuw i8, ptr %0, i64 64
  store ptr null, ptr %3, align 8, !tbaa !4
  store i64 0, ptr %4, align 8, !tbaa !9
  %.not = icmp eq i64 %2, 0
  br i1 %.not, label %7, label %9

7:                                                ; preds = %5
  %8 = tail call i64 @strlen(ptr noundef nonnull dereferenceable(1) %1) #9
  br label %9

9:                                                ; preds = %7, %5
  %.055 = phi i64 [ %2, %5 ], [ %8, %7 ]
  %10 = add i64 %.055, 2
  %11 = udiv i64 %10, 3
  %12 = shl i64 %11, 2
  %13 = or disjoint i64 %12, 1
  %14 = tail call noalias ptr @malloc(i64 noundef %13) #10
  %.not62 = icmp eq ptr %14, null
  br i1 %.not62, label %91, label %.preheader

.preheader:                                       ; preds = %9
  %15 = icmp ugt i64 %.055, 2
  br i1 %15, label %.lr.ph, label %._crit_edge

.lr.ph:                                           ; preds = %.preheader, %.lr.ph
  %.05468 = phi ptr [ %48, %.lr.ph ], [ %1, %.preheader ]
  %.167 = phi i64 [ %47, %.lr.ph ], [ %.055, %.preheader ]
  %.05666 = phi ptr [ %46, %.lr.ph ], [ %14, %.preheader ]
  %16 = load i8, ptr %.05468, align 1, !tbaa !11
  %17 = lshr i8 %16, 2
  %18 = zext nneg i8 %17 to i64
  %19 = getelementptr inbounds nuw i8, ptr %0, i64 %18
  %20 = load i8, ptr %19, align 1, !tbaa !11
  %21 = getelementptr inbounds nuw i8, ptr %.05666, i64 1
  store i8 %20, ptr %.05666, align 1, !tbaa !11
  %22 = shl i8 %16, 4
  %23 = and i8 %22, 48
  %24 = getelementptr inbounds nuw i8, ptr %.05468, i64 1
  %25 = load i8, ptr %24, align 1, !tbaa !11
  %26 = lshr i8 %25, 4
  %27 = or disjoint i8 %26, %23
  %28 = zext nneg i8 %27 to i64
  %29 = getelementptr inbounds nuw i8, ptr %0, i64 %28
  %30 = load i8, ptr %29, align 1, !tbaa !11
  %31 = getelementptr inbounds nuw i8, ptr %.05666, i64 2
  store i8 %30, ptr %21, align 1, !tbaa !11
  %32 = shl i8 %25, 2
  %33 = and i8 %32, 60
  %34 = getelementptr inbounds nuw i8, ptr %.05468, i64 2
  %35 = load i8, ptr %34, align 1, !tbaa !11
  %36 = lshr i8 %35, 6
  %37 = or disjoint i8 %36, %33
  %38 = zext nneg i8 %37 to i64
  %39 = getelementptr inbounds nuw i8, ptr %0, i64 %38
  %40 = load i8, ptr %39, align 1, !tbaa !11
  %41 = getelementptr inbounds nuw i8, ptr %.05666, i64 3
  store i8 %40, ptr %31, align 1, !tbaa !11
  %42 = and i8 %35, 63
  %43 = zext nneg i8 %42 to i64
  %44 = getelementptr inbounds nuw i8, ptr %0, i64 %43
  %45 = load i8, ptr %44, align 1, !tbaa !11
  %46 = getelementptr inbounds nuw i8, ptr %.05666, i64 4
  store i8 %45, ptr %41, align 1, !tbaa !11
  %47 = add i64 %.167, -3
  %48 = getelementptr inbounds nuw i8, ptr %.05468, i64 3
  %49 = icmp ugt i64 %47, 2
  br i1 %49, label %.lr.ph, label %._crit_edge, !llvm.loop !17

._crit_edge:                                      ; preds = %.lr.ph, %.preheader
  %.056.lcssa = phi ptr [ %14, %.preheader ], [ %46, %.lr.ph ]
  %.1.lcssa = phi i64 [ %.055, %.preheader ], [ %47, %.lr.ph ]
  %.054.lcssa = phi ptr [ %1, %.preheader ], [ %48, %.lr.ph ]
  %.not63 = icmp eq i64 %.1.lcssa, 0
  br i1 %.not63, label %87, label %50

50:                                               ; preds = %._crit_edge
  %51 = load i8, ptr %.054.lcssa, align 1, !tbaa !11
  %52 = lshr i8 %51, 2
  %53 = zext nneg i8 %52 to i64
  %54 = getelementptr inbounds nuw i8, ptr %0, i64 %53
  %55 = load i8, ptr %54, align 1, !tbaa !11
  %56 = getelementptr inbounds nuw i8, ptr %.056.lcssa, i64 1
  store i8 %55, ptr %.056.lcssa, align 1, !tbaa !11
  %57 = icmp eq i64 %.1.lcssa, 1
  %58 = shl i8 %51, 4
  %59 = and i8 %58, 48
  br i1 %57, label %60, label %69

60:                                               ; preds = %50
  %61 = zext nneg i8 %59 to i64
  %62 = getelementptr inbounds nuw i8, ptr %0, i64 %61
  %63 = load i8, ptr %62, align 1, !tbaa !11
  %64 = getelementptr inbounds nuw i8, ptr %.056.lcssa, i64 2
  store i8 %63, ptr %56, align 1, !tbaa !11
  %65 = load i8, ptr %6, align 1, !tbaa !11
  %.not65 = icmp eq i8 %65, 0
  br i1 %.not65, label %87, label %66

66:                                               ; preds = %60
  %67 = getelementptr inbounds nuw i8, ptr %.056.lcssa, i64 3
  store i8 %65, ptr %64, align 1, !tbaa !11
  %68 = getelementptr inbounds nuw i8, ptr %.056.lcssa, i64 4
  store i8 %65, ptr %67, align 1, !tbaa !11
  br label %87

69:                                               ; preds = %50
  %70 = getelementptr inbounds nuw i8, ptr %.054.lcssa, i64 1
  %71 = load i8, ptr %70, align 1, !tbaa !11
  %72 = lshr i8 %71, 4
  %73 = or disjoint i8 %72, %59
  %74 = zext nneg i8 %73 to i64
  %75 = getelementptr inbounds nuw i8, ptr %0, i64 %74
  %76 = load i8, ptr %75, align 1, !tbaa !11
  %77 = getelementptr inbounds nuw i8, ptr %.056.lcssa, i64 2
  store i8 %76, ptr %56, align 1, !tbaa !11
  %78 = shl i8 %71, 2
  %79 = and i8 %78, 60
  %80 = zext nneg i8 %79 to i64
  %81 = getelementptr inbounds nuw i8, ptr %0, i64 %80
  %82 = load i8, ptr %81, align 1, !tbaa !11
  %83 = getelementptr inbounds nuw i8, ptr %.056.lcssa, i64 3
  store i8 %82, ptr %77, align 1, !tbaa !11
  %84 = load i8, ptr %6, align 1, !tbaa !11
  %.not64 = icmp eq i8 %84, 0
  br i1 %.not64, label %87, label %85

85:                                               ; preds = %69
  %86 = getelementptr inbounds nuw i8, ptr %.056.lcssa, i64 4
  store i8 %84, ptr %83, align 1, !tbaa !11
  br label %87

87:                                               ; preds = %66, %60, %85, %69, %._crit_edge
  %.157 = phi ptr [ %68, %66 ], [ %64, %60 ], [ %86, %85 ], [ %83, %69 ], [ %.056.lcssa, %._crit_edge ]
  store i8 0, ptr %.157, align 1, !tbaa !11
  store ptr %14, ptr %3, align 8, !tbaa !4
  %88 = ptrtoint ptr %.157 to i64
  %89 = ptrtoint ptr %14 to i64
  %90 = sub i64 %88, %89
  store i64 %90, ptr %4, align 8, !tbaa !9
  br label %91

91:                                               ; preds = %9, %87
  %.0 = phi i32 [ 0, %87 ], [ 27, %9 ]
  ret i32 %.0
}